Certificate:
    Data:
        Version: 3 (0x2)
        Serial Number: 1 (0x1)
    Signature Algorithm: sha256WithRSAEncryption
        Issuer: C=US, ST=California, L=San Jose, O=Kaazing, OU=Local Server, CN=Montage Studio
        Validity
            Not Before: Apr  1 23:47:11 2018 GMT
            Not After : Dec 26 23:47:11 2020 GMT
        Subject: C=US, ST=California, L=San Jose, O=Kaazing, CN=Montage Studio
        Subject Public Key Info:
            Public Key Algorithm: rsaEncryption
                Public-Key: (2048 bit)
                Modulus:
                    00:dd:ee:ff:59:a8:b3:79:13:99:8b:6c:d8:f6:87:
                    09:f8:c6:58:fe:f0:62:2e:cd:f2:f2:11:a5:53:7a:
                    ea:bf:8e:8e:97:b5:49:cf:73:54:16:b1:dd:f6:40:
                    cb:43:0c:d4:d0:61:a4:66:34:1c:3a:a6:a6:26:42:
                    86:a1:63:8c:d9:27:7c:a7:05:fd:9a:81:26:7c:92:
                    e1:ca:4d:e9:35:bd:b1:a2:2b:63:7e:be:a4:1e:0f:
                    e4:31:95:5e:67:8d:9d:33:72:ac:13:d3:53:4c:4f:
                    79:ae:3c:04:48:23:22:37:82:1f:2e:c9:68:2b:c3:
                    b9:5d:ba:24:cb:c4:56:d5:f5:7d:98:e4:61:e5:71:
                    b3:83:f2:e9:c9:7f:5b:96:bc:3c:b6:ab:95:ba:f7:
                    6b:84:d7:6d:42:62:bc:8b:1f:71:b7:31:90:06:b7:
                    84:76:be:e2:a8:53:e6:7a:f3:aa:85:b0:bc:c6:c6:
                    73:9a:a3:ea:d1:d9:8a:76:2a:98:23:03:92:d9:ef:
                    7c:a9:26:5d:61:d9:bb:ef:97:2c:f2:80:af:b8:a8:
                    e2:9c:23:ee:58:54:d6:f5:69:4b:24:fe:5c:9d:e7:
                    7b:32:05:c8:ac:d4:05:12:71:83:46:ed:90:3c:d4:
                    77:3c:bc:ae:e5:0e:93:14:04:05:51:34:4a:a2:0c:
                    af:95
                Exponent: 65537 (0x10001)
        X509v3 extensions:
            X509v3 Subject Key Identifier: 
                E7:76:99:00:89:D5:C6:A9:45:DE:A2:7A:FD:5D:FD:D4:47:7B:1A:D3
            X509v3 Authority Key Identifier: 
                keyid:6D:DB:8A:91:55:40:12:20:D2:0F:F1:8F:48:02:D4:4A:FB:E7:81:AA

            X509v3 Basic Constraints: 
                CA:FALSE
            X509v3 Key Usage: 
                Digital Signature, Key Encipherment
            X509v3 Subject Alternative Name: 
                DNS:local.montage.studio, DNS:www.local.montage.studio, DNS:project.local.montage.studio, DNS:session.local.montage.studio
            Netscape Comment: 
                OpenSSL Generated Certificate
    Signature Algorithm: sha256WithRSAEncryption
         a5:9f:e5:09:30:3d:4c:27:4f:f1:9c:64:73:ad:fa:29:89:55:
         02:2e:e1:ed:be:01:b1:1e:2d:68:a9:83:55:87:94:aa:75:bb:
         a6:8d:67:c9:16:df:cb:89:7e:e2:60:24:4c:a9:d6:22:30:ea:
         0c:af:33:d5:2f:4e:19:8f:43:e2:8f:23:75:9b:c6:a9:5a:37:
         b3:6e:f2:dd:db:5c:f3:9c:22:03:06:b4:08:a1:49:7d:99:e6:
         c6:4d:9b:07:7e:35:96:36:9d:70:d1:a5:a5:81:47:f8:00:33:
         e1:09:34:f7:cb:b7:e0:f4:33:e4:9c:4d:ba:fa:5e:33:6f:c5:
         a0:44:03:df:76:6c:c5:10:a3:38:63:3c:78:97:8e:fd:6c:95:
         54:69:cd:6a:9f:82:7c:4f:3c:ef:7d:2f:b4:66:14:1b:0b:00:
         b5:38:a3:6a:f8:b9:38:b1:59:42:98:aa:bb:b9:ed:1e:a1:db:
         11:ba:41:b5:9c:81:c9:56:6c:0a:68:0b:99:3f:fb:16:47:0f:
         22:03:4a:3d:f8:86:7e:cd:90:d1:bb:2d:ae:2a:89:b2:10:d8:
         c5:3b:e4:03:6a:4e:6b:ad:9d:35:37:d1:7c:23:cb:51:e5:5f:
         f2:63:d4:9d:ff:73:eb:27:56:b0:ee:1a:9a:5b:6d:e0:60:51:
         69:db:1e:0a:35:77:b3:cc:37:35:07:c5:cd:6b:1f:0f:f5:c0:
         8e:51:6b:1d:1f:b9:27:f9:af:8e:24:f8:04:4b:5f:9b:34:75:
         a5:ed:97:2d:53:98:c9:87:50:e2:cd:6a:93:e6:69:72:86:75:
         d7:34:5a:4f:8f:10:c7:8c:f8:30:e9:9a:cc:a4:dd:06:7e:52:
         b2:66:f5:c2:76:23:3d:28:37:cb:cd:f7:50:96:1e:1d:67:c2:
         0a:4d:0d:f9:d6:e2:d0:52:23:22:6f:f4:31:4c:ec:f9:05:19:
         aa:c0:ef:84:c5:be:d4:04:d5:39:11:2d:2a:b1:e7:4c:f3:f3:
         ac:5e:b4:7c:47:f4:74:94:96:57:d7:d3:26:82:c5:9e:6a:30:
         65:d9:59:20:b3:69:af:5a:bc:d7:69:22:87:e5:45:60:12:75:
         d9:17:f6:01:9e:1e:80:b7:99:91:b7:0a:c6:28:48:25:8c:cb:
         0c:96:9f:52:ae:4f:ed:f7:e9:e8:48:8f:1a:90:76:e7:d4:d4:
         87:b5:66:2c:f5:6a:83:3b:3f:88:06:a6:5d:0e:b4:e0:6a:ae:
         58:c8:20:be:ad:5a:c7:d9:2a:20:bd:4c:a0:00:21:76:5b:1e:
         a8:ef:ba:1d:8d:43:87:61:59:91:d3:d5:8e:d6:ec:39:07:91:
         15:4c:a6:34:14:f8:45:7e
-----BEGIN CERTIFICATE-----
MIIFVDCCAzygAwIBAgIBATANBgkqhkiG9w0BAQsFADB3MQswCQYDVQQGEwJVUzET
MBEGA1UECAwKQ2FsaWZvcm5pYTERMA8GA1UEBwwIU2FuIEpvc2UxEDAOBgNVBAoM
B0thYXppbmcxFTATBgNVBAsMDExvY2FsIFNlcnZlcjEXMBUGA1UEAwwOTW9udGFn
ZSBTdHVkaW8wHhcNMTgwNDAxMjM0NzExWhcNMjAxMjI2MjM0NzExWjBgMQswCQYD
VQQGEwJVUzETMBEGA1UECAwKQ2FsaWZvcm5pYTERMA8GA1UEBwwIU2FuIEpvc2Ux
EDAOBgNVBAoMB0thYXppbmcxFzAVBgNVBAMMDk1vbnRhZ2UgU3R1ZGlvMIIBIjAN
BgkqhkiG9w0BAQEFAAOCAQ8AMIIBCgKCAQEA3e7/WaizeROZi2zY9ocJ+MZY/vBi
Ls3y8hGlU3rqv46Ol7VJz3NUFrHd9kDLQwzU0GGkZjQcOqamJkKGoWOM2Sd8pwX9
moEmfJLhyk3pNb2xoitjfr6kHg/kMZVeZ42dM3KsE9NTTE95rjwESCMiN4IfLslo
K8O5Xboky8RW1fV9mORh5XGzg/LpyX9blrw8tquVuvdrhNdtQmK8ix9xtzGQBreE
dr7iqFPmevOqhbC8xsZzmqPq0dmKdiqYIwOS2e98qSZdYdm775cs8oCvuKjinCPu
WFTW9WlLJP5cned7MgXIrNQFEnGDRu2QPNR3PLyu5Q6TFAQFUTRKogyvlQIDAQAB
o4IBADCB/TAdBgNVHQ4EFgQU53aZAInVxqlF3qJ6/V391Ed7GtMwHwYDVR0jBBgw
FoAUbduKkVVAEiDSD/GPSALUSvvngaowCQYDVR0TBAIwADALBgNVHQ8EBAMCBaAw
dQYDVR0RBG4wbIIUbG9jYWwubW9udGFnZS5zdHVkaW+CGHd3dy5sb2NhbC5tb250
YWdlLnN0dWRpb4IccHJvamVjdC5sb2NhbC5tb250YWdlLnN0dWRpb4Icc2Vzc2lv
bi5sb2NhbC5tb250YWdlLnN0dWRpbzAsBglghkgBhvhCAQ0EHxYdT3BlblNTTCBH
ZW5lcmF0ZWQgQ2VydGlmaWNhdGUwDQYJKoZIhvcNAQELBQADggIBAKWf5QkwPUwn
T/GcZHOt+imJVQIu4e2+AbEeLWipg1WHlKp1u6aNZ8kW38uJfuJgJEyp1iIw6gyv
M9UvThmPQ+KPI3WbxqlaN7Nu8t3bXPOcIgMGtAihSX2Z5sZNmwd+NZY2nXDRpaWB
R/gAM+EJNPfLt+D0M+ScTbr6XjNvxaBEA992bMUQozhjPHiXjv1slVRpzWqfgnxP
PO99L7RmFBsLALU4o2r4uTixWUKYqru57R6h2xG6QbWcgclWbApoC5k/+xZHDyID
Sj34hn7NkNG7La4qibIQ2MU75ANqTmutnTU30Xwjy1HlX/Jj1J3/c+snVrDuGppb
beBgUWnbHgo1d7PMNzUHxc1rHw/1wI5Rax0fuSf5r44k+ARLX5s0daXtly1TmMmH
UOLNapPmaXKGddc0Wk+PEMeM+DDpmsyk3QZ+UrJm9cJ2Iz0oN8vN91CWHh1nwgpN
DfnW4tBSIyJv9DFM7PkFGarA74TFvtQE1TkRLSqx50zz86xetHxH9HSUllfX0yaC
xZ5qMGXZWSCzaa9avNdpIoflRWASddkX9gGeHoC3mZG3CsYoSCWMywyWn1KuT+33
6ehIjxqQdufU1Ie1Ziz1aoM7P4gGpl0OtOBqrljIIL6tWsfZKiC9TKAAIXZbHqjv
uh2NQ4dhWZHT1Y7W7DkHkRVMpjQU+EV+
-----END CERTIFICATE-----
