Certificate:
    Data:
        Version: 3 (0x2)
        Serial Number: 2 (0x2)
    Signature Algorithm: sha256WithRSAEncryption
        Issuer: C=US, ST=California, L=San Jose, O=Kaazing, OU=Local Server, CN=Montage Studio
        Validity
            Not Before: Apr  2 20:19:23 2018 GMT
            Not After : Dec 27 20:19:23 2020 GMT
        Subject: C=US, ST=California, L=San Jose, O=Kaazing, CN=Montage Studio
        Subject Public Key Info:
            Public Key Algorithm: rsaEncryption
                Public-Key: (2048 bit)
                Modulus:
                    00:c9:f8:fc:e9:cf:9a:d6:f3:dd:c1:bc:5b:22:36:
                    96:c2:e6:d0:1b:5d:f4:10:6e:71:41:83:71:d6:29:
                    c3:46:45:e1:f5:12:19:0c:ca:df:d6:7b:d9:24:5b:
                    ba:ac:5e:9a:8e:46:58:ea:ea:45:69:e6:e0:11:06:
                    d4:2a:51:68:fa:06:5f:18:51:7d:63:f5:0c:8a:75:
                    5a:80:57:95:ce:f8:ee:2c:c5:be:a6:e1:51:cd:f9:
                    60:66:a2:3c:f3:ef:15:1b:16:ba:11:de:64:0b:2d:
                    ec:19:41:ca:4c:8c:45:92:69:04:42:93:03:eb:36:
                    4f:6d:62:b6:0f:c1:38:a6:91:cb:f4:f5:fd:f3:08:
                    c6:bc:51:59:ea:82:f4:0c:3a:67:76:f6:19:a8:af:
                    9f:bc:f9:93:ff:dd:5a:bc:82:39:ac:02:02:22:88:
                    e2:19:b0:43:70:fd:68:cc:ce:37:a2:f3:16:01:bc:
                    b1:0c:f0:8d:78:80:41:e4:d9:31:b2:91:b3:e3:fc:
                    2d:29:c1:fd:5c:92:73:c1:73:d0:b1:46:9b:6e:1b:
                    a2:0e:c3:5b:7e:28:a6:a0:6b:30:0e:6a:24:2d:4d:
                    27:ff:9d:85:e1:ab:8c:2b:71:f1:2f:40:ac:4a:5c:
                    5a:3f:b7:3d:92:b0:97:93:87:c1:44:ed:47:99:40:
                    96:5d
                Exponent: 65537 (0x10001)
        X509v3 extensions:
            X509v3 Subject Key Identifier: 
                54:C7:93:C4:5A:20:C6:F6:BC:A6:3E:77:92:0F:8E:7D:E3:93:9B:6A
            X509v3 Authority Key Identifier: 
                keyid:6D:DB:8A:91:55:40:12:20:D2:0F:F1:8F:48:02:D4:4A:FB:E7:81:AA

            X509v3 Basic Constraints: 
                CA:FALSE
            X509v3 Key Usage: 
                Digital Signature, Key Encipherment
            X509v3 Subject Alternative Name: 
                DNS:local.montage.studio, DNS:www.local.montage.studio, DNS:project.local.montage.studio, DNS:session.local.montage.studio, DNS:api.local.montage.studio
            Netscape Comment: 
                OpenSSL Generated Certificate
    Signature Algorithm: sha256WithRSAEncryption
         a5:1e:17:9a:3f:d9:d6:6e:f6:a5:13:89:c8:e5:11:05:56:6f:
         0a:23:bb:f4:ed:d8:50:b0:12:8d:dc:1a:69:f3:fe:a1:15:c3:
         3c:b7:84:7f:46:ac:2f:34:03:1f:d8:51:4b:72:ee:a1:d3:26:
         d9:d1:b8:f9:9d:80:11:85:96:ac:a9:10:8b:51:a8:15:47:16:
         6f:59:c1:1d:3a:a9:87:d0:aa:c0:07:ea:8d:f3:ec:70:33:62:
         31:10:d6:94:b1:70:4a:23:18:f3:47:39:65:23:76:66:bd:7d:
         3e:01:12:32:92:c1:ae:c8:61:f2:69:e3:65:14:f0:78:55:7f:
         3f:fd:81:8c:62:ba:9b:13:ad:1f:5f:52:e2:5d:23:ef:59:07:
         36:43:b0:b5:ba:0c:72:59:0a:6b:92:a9:4c:7a:a4:ba:a6:46:
         94:5f:12:d3:47:fc:7c:2d:eb:b7:eb:7e:0d:9c:df:98:7f:63:
         b8:16:f9:23:7f:58:98:05:6a:38:6c:03:02:c4:b2:ff:e8:08:
         27:bc:26:6e:f5:c8:30:cf:f5:d7:0b:f3:33:e0:9a:1e:b4:0d:
         4d:03:58:e2:6f:2d:b9:02:c1:6c:66:b0:fa:94:5b:bc:c6:8c:
         b9:fb:a3:e3:96:bb:e7:0f:7b:08:25:20:0c:e8:46:71:ab:96:
         7a:c7:2c:af:5f:ac:2e:4b:93:df:64:bc:b8:78:a7:b6:5b:c5:
         be:fd:ca:0a:c5:40:59:07:ba:08:0c:a5:e2:57:2e:a2:b2:08:
         e9:7d:7e:0b:5e:07:3b:85:d2:3c:b2:c4:a0:00:5a:56:21:bf:
         c3:a2:85:12:e1:25:ba:4a:9a:3d:da:6f:68:5f:35:71:70:ce:
         85:5b:fd:28:a7:bd:6d:69:69:ae:dc:8f:c2:e7:28:03:db:00:
         e5:77:ca:b0:bd:89:34:4a:fb:2c:a5:f3:b2:e8:c0:41:2f:bd:
         06:f4:1d:cc:1f:e0:7d:9f:7c:b5:0e:5d:13:a3:69:9c:c2:d4:
         77:41:6d:51:8f:03:56:96:75:ed:56:5d:4a:0d:17:73:e2:09:
         cd:eb:1e:f9:eb:25:9b:75:e5:4a:26:fe:58:13:46:46:fa:84:
         39:51:fa:c4:25:7c:4f:fe:dd:47:14:46:7c:e1:3a:1b:c7:ed:
         8b:e0:36:f3:9f:b1:42:d9:ce:bf:2c:5f:f9:8f:83:6e:02:af:
         8d:6d:51:d4:12:e6:6b:bf:6e:31:b3:91:9f:b2:36:45:8c:bf:
         67:09:25:eb:bb:9b:8a:0d:e4:9b:c3:c8:7a:b1:e1:be:2d:78:
         5a:08:16:ae:fe:ee:b0:c8:45:57:1a:25:f3:18:f9:9c:5a:76:
         8e:93:15:c1:10:78:29:07
-----BEGIN CERTIFICATE-----
MIIFcjCCA1qgAwIBAgIBAjANBgkqhkiG9w0BAQsFADB3MQswCQYDVQQGEwJVUzET
MBEGA1UECAwKQ2FsaWZvcm5pYTERMA8GA1UEBwwIU2FuIEpvc2UxEDAOBgNVBAoM
B0thYXppbmcxFTATBgNVBAsMDExvY2FsIFNlcnZlcjEXMBUGA1UEAwwOTW9udGFn
ZSBTdHVkaW8wHhcNMTgwNDAyMjAxOTIzWhcNMjAxMjI3MjAxOTIzWjBgMQswCQYD
VQQGEwJVUzETMBEGA1UECAwKQ2FsaWZvcm5pYTERMA8GA1UEBwwIU2FuIEpvc2Ux
EDAOBgNVBAoMB0thYXppbmcxFzAVBgNVBAMMDk1vbnRhZ2UgU3R1ZGlvMIIBIjAN
BgkqhkiG9w0BAQEFAAOCAQ8AMIIBCgKCAQEAyfj86c+a1vPdwbxbIjaWwubQG130
EG5xQYNx1inDRkXh9RIZDMrf1nvZJFu6rF6ajkZY6upFaebgEQbUKlFo+gZfGFF9
Y/UMinVagFeVzvjuLMW+puFRzflgZqI88+8VGxa6Ed5kCy3sGUHKTIxFkmkEQpMD
6zZPbWK2D8E4ppHL9PX98wjGvFFZ6oL0DDpndvYZqK+fvPmT/91avII5rAICIoji
GbBDcP1ozM43ovMWAbyxDPCNeIBB5NkxspGz4/wtKcH9XJJzwXPQsUabbhuiDsNb
fiimoGswDmokLU0n/52F4auMK3HxL0CsSlxaP7c9krCXk4fBRO1HmUCWXQIDAQAB
o4IBHjCCARowHQYDVR0OBBYEFFTHk8RaIMb2vKY+d5IPjn3jk5tqMB8GA1UdIwQY
MBaAFG3bipFVQBIg0g/xj0gC1Er754GqMAkGA1UdEwQCMAAwCwYDVR0PBAQDAgWg
MIGRBgNVHREEgYkwgYaCFGxvY2FsLm1vbnRhZ2Uuc3R1ZGlvghh3d3cubG9jYWwu
bW9udGFnZS5zdHVkaW+CHHByb2plY3QubG9jYWwubW9udGFnZS5zdHVkaW+CHHNl
c3Npb24ubG9jYWwubW9udGFnZS5zdHVkaW+CGGFwaS5sb2NhbC5tb250YWdlLnN0
dWRpbzAsBglghkgBhvhCAQ0EHxYdT3BlblNTTCBHZW5lcmF0ZWQgQ2VydGlmaWNh
dGUwDQYJKoZIhvcNAQELBQADggIBAKUeF5o/2dZu9qUTicjlEQVWbwoju/Tt2FCw
Eo3cGmnz/qEVwzy3hH9GrC80Ax/YUUty7qHTJtnRuPmdgBGFlqypEItRqBVHFm9Z
wR06qYfQqsAH6o3z7HAzYjEQ1pSxcEojGPNHOWUjdma9fT4BEjKSwa7IYfJp42UU
8HhVfz/9gYxiupsTrR9fUuJdI+9ZBzZDsLW6DHJZCmuSqUx6pLqmRpRfEtNH/Hwt
67frfg2c35h/Y7gW+SN/WJgFajhsAwLEsv/oCCe8Jm71yDDP9dcL8zPgmh60DU0D
WOJvLbkCwWxmsPqUW7zGjLn7o+OWu+cPewglIAzoRnGrlnrHLK9frC5Lk99kvLh4
p7Zbxb79ygrFQFkHuggMpeJXLqKyCOl9fgteBzuF0jyyxKAAWlYhv8OihRLhJbpK
mj3ab2hfNXFwzoVb/SinvW1paa7cj8LnKAPbAOV3yrC9iTRK+yyl87LowEEvvQb0
Hcwf4H2ffLUOXROjaZzC1HdBbVGPA1aWde1WXUoNF3PiCc3rHvnrJZt15Uom/lgT
Rkb6hDlR+sQlfE/+3UcURnzhOhvH7YvgNvOfsULZzr8sX/mPg24Cr41tUdQS5mu/
bjGzkZ+yNkWMv2cJJeu7m4oN5JvDyHqx4b4teFoIFq7+7rDIRVcaJfMY+Zxado6T
FcEQeCkH
-----END CERTIFICATE-----
