Certificate:
    Data:
        Version: 3 (0x2)
        Serial Number: 3 (0x3)
    Signature Algorithm: sha256WithRSAEncryption
        Issuer: C=US, ST=California, L=San Jose, O=Kaazing, OU=Local Server, CN=Montage Studio
        Validity
            Not Before: Apr  3 16:46:26 2018 GMT
            Not After : Dec 28 16:46:26 2020 GMT
        Subject: C=US, ST=California, L=San Jose, O=Kaazing, CN=Montage Studio
        Subject Public Key Info:
            Public Key Algorithm: rsaEncryption
                Public-Key: (2048 bit)
                Modulus:
                    00:c9:4c:fe:20:c5:a5:bd:59:00:96:f6:d1:4c:0a:
                    13:98:18:21:ec:ad:c2:09:d0:96:a0:dc:b0:57:f8:
                    99:1d:1a:fd:96:0c:48:03:b8:86:2b:94:0c:8a:d7:
                    c0:7c:ed:0f:c0:e5:1f:b2:ff:f6:74:cb:54:3f:29:
                    79:bd:b0:26:0b:c2:30:3b:ab:4a:fc:3c:89:5e:11:
                    4b:cb:82:97:c6:91:d3:18:e3:92:4b:29:28:31:f8:
                    44:4e:20:0d:89:21:c9:13:bc:b1:06:03:69:8e:dd:
                    cc:15:cf:2d:69:5f:8a:75:4f:7f:b2:11:a7:20:f2:
                    ff:ee:62:5c:4e:6d:aa:28:fe:70:48:2b:fd:b3:6a:
                    07:5a:5c:2c:39:9f:c5:60:b2:5e:68:19:41:34:a0:
                    a5:58:89:a0:e7:15:7c:77:67:8b:6f:26:00:4c:1c:
                    d1:c5:d0:a3:e6:17:d7:ac:53:4e:31:ae:5a:fa:58:
                    27:54:6d:3e:3d:0a:51:29:2e:5b:b5:36:27:f4:39:
                    cd:02:51:3c:07:16:4b:a0:73:08:bf:14:7a:f8:99:
                    28:4c:8e:e8:ac:26:99:8c:1f:71:38:4a:e5:57:0b:
                    5b:d2:c7:e4:f1:1d:93:e3:3c:c6:ad:8f:c4:ab:e7:
                    80:b8:02:e9:f5:c0:09:61:af:7b:ea:13:4c:e3:1f:
                    f9:75
                Exponent: 65537 (0x10001)
        X509v3 extensions:
            X509v3 Subject Key Identifier: 
                8C:9D:77:44:F2:F1:97:33:C7:78:26:4B:F2:F0:8E:15:F7:86:3A:8B
            X509v3 Authority Key Identifier: 
                keyid:6D:DB:8A:91:55:40:12:20:D2:0F:F1:8F:48:02:D4:4A:FB:E7:81:AA

            X509v3 Basic Constraints: 
                CA:FALSE
            X509v3 Key Usage: 
                Digital Signature, Key Encipherment
            X509v3 Subject Alternative Name: 
                DNS:local.montage.studio, DNS:www.local.montage.studio, DNS:project.local.montage.studio, DNS:session.local.montage.studio, DNS:api.local.montage.studio, DNS:build.local.montage.studio
            Netscape Comment: 
                OpenSSL Generated Certificate
    Signature Algorithm: sha256WithRSAEncryption
         0f:16:24:79:51:1f:3a:34:fa:3e:a0:64:2f:b6:d8:a3:18:55:
         eb:30:69:74:a1:df:02:64:0c:eb:f5:a1:f7:47:24:90:33:68:
         d8:fd:e9:72:46:51:4e:26:1f:76:b3:43:67:79:09:b4:7e:68:
         d5:35:79:4b:f4:51:17:4a:91:ee:dd:70:2b:39:45:af:2e:45:
         47:91:e2:c5:6b:66:2b:40:7b:9e:7c:ec:e0:23:78:f5:c7:cf:
         99:1d:ff:fc:a8:34:50:6b:88:6c:aa:72:99:cc:10:bd:c0:2b:
         39:bf:3b:6f:66:19:6f:c3:65:38:b0:f8:61:1c:d9:ab:46:cd:
         dd:fa:56:6b:b7:54:fa:c3:3a:b4:d3:6f:e8:2a:50:c4:db:2e:
         ea:84:4a:85:73:b9:db:9d:14:9a:84:af:73:ec:39:a6:94:60:
         87:1e:05:7a:c6:2f:2d:f6:14:11:2c:ea:23:87:83:a3:43:a3:
         cd:42:e5:59:b0:55:53:36:af:3f:a8:0d:1c:e1:5d:9b:f9:3a:
         cc:a9:bc:42:11:4a:c9:a3:e1:91:45:e0:7d:b0:ce:88:35:a1:
         01:49:52:9e:1b:f8:f4:e5:71:86:a2:5c:fb:9e:7c:46:e9:30:
         32:af:ca:40:99:dd:95:d0:cc:70:51:29:f3:44:55:02:e9:e5:
         9d:41:79:90:09:75:8e:29:cc:7b:82:75:0e:71:51:84:47:49:
         36:d4:7a:0a:03:43:81:00:4f:ae:b3:a7:ae:9e:2a:da:02:a5:
         ce:f3:7e:d9:be:ea:ab:0f:77:18:21:f0:69:bb:43:f1:8c:f6:
         93:97:8a:07:a9:e8:5f:58:2a:83:91:b2:43:61:dc:62:c2:2b:
         38:ec:03:0e:30:e7:6b:2e:60:0a:d6:63:af:f9:a4:16:d7:5b:
         6c:9f:16:eb:66:43:a9:43:ae:7e:16:24:04:ff:b9:d8:32:6f:
         9e:d6:dc:07:38:49:36:24:93:3a:e4:af:9e:f9:dc:a8:55:ec:
         10:d3:cd:4f:0c:d8:b2:2f:a5:83:84:00:df:cf:80:1d:3b:fd:
         3d:8d:22:1d:06:aa:79:d3:b3:4b:88:48:2a:e4:0e:4d:21:49:
         cc:31:90:1d:89:ef:af:d5:ee:aa:6a:60:1a:c6:f2:bf:f9:36:
         85:74:b3:d7:e8:36:d1:66:0e:c2:dd:df:78:15:66:9e:c3:ed:
         ac:f5:3c:f8:6d:c5:56:43:e7:d5:87:0b:93:04:03:67:e3:13:
         40:82:6d:1f:8b:6f:a4:53:23:35:40:66:9a:40:c3:1d:51:2f:
         40:9c:ac:92:9e:a4:6d:2f:fe:0c:36:33:1f:c0:ff:f1:38:9f:
         0b:5d:81:f7:5d:0f:ca:c4
-----BEGIN CERTIFICATE-----
MIIFjjCCA3agAwIBAgIBAzANBgkqhkiG9w0BAQsFADB3MQswCQYDVQQGEwJVUzET
MBEGA1UECAwKQ2FsaWZvcm5pYTERMA8GA1UEBwwIU2FuIEpvc2UxEDAOBgNVBAoM
B0thYXppbmcxFTATBgNVBAsMDExvY2FsIFNlcnZlcjEXMBUGA1UEAwwOTW9udGFn
ZSBTdHVkaW8wHhcNMTgwNDAzMTY0NjI2WhcNMjAxMjI4MTY0NjI2WjBgMQswCQYD
VQQGEwJVUzETMBEGA1UECAwKQ2FsaWZvcm5pYTERMA8GA1UEBwwIU2FuIEpvc2Ux
EDAOBgNVBAoMB0thYXppbmcxFzAVBgNVBAMMDk1vbnRhZ2UgU3R1ZGlvMIIBIjAN
BgkqhkiG9w0BAQEFAAOCAQ8AMIIBCgKCAQEAyUz+IMWlvVkAlvbRTAoTmBgh7K3C
CdCWoNywV/iZHRr9lgxIA7iGK5QMitfAfO0PwOUfsv/2dMtUPyl5vbAmC8IwO6tK
/DyJXhFLy4KXxpHTGOOSSykoMfhETiANiSHJE7yxBgNpjt3MFc8taV+KdU9/shGn
IPL/7mJcTm2qKP5wSCv9s2oHWlwsOZ/FYLJeaBlBNKClWImg5xV8d2eLbyYATBzR
xdCj5hfXrFNOMa5a+lgnVG0+PQpRKS5btTYn9DnNAlE8BxZLoHMIvxR6+JkoTI7o
rCaZjB9xOErlVwtb0sfk8R2T4zzGrY/Eq+eAuALp9cAJYa976hNM4x/5dQIDAQAB
o4IBOjCCATYwHQYDVR0OBBYEFIydd0Ty8Zczx3gmS/LwjhX3hjqLMB8GA1UdIwQY
MBaAFG3bipFVQBIg0g/xj0gC1Er754GqMAkGA1UdEwQCMAAwCwYDVR0PBAQDAgWg
MIGtBgNVHREEgaUwgaKCFGxvY2FsLm1vbnRhZ2Uuc3R1ZGlvghh3d3cubG9jYWwu
bW9udGFnZS5zdHVkaW+CHHByb2plY3QubG9jYWwubW9udGFnZS5zdHVkaW+CHHNl
c3Npb24ubG9jYWwubW9udGFnZS5zdHVkaW+CGGFwaS5sb2NhbC5tb250YWdlLnN0
dWRpb4IaYnVpbGQubG9jYWwubW9udGFnZS5zdHVkaW8wLAYJYIZIAYb4QgENBB8W
HU9wZW5TU0wgR2VuZXJhdGVkIENlcnRpZmljYXRlMA0GCSqGSIb3DQEBCwUAA4IC
AQAPFiR5UR86NPo+oGQvttijGFXrMGl0od8CZAzr9aH3RySQM2jY/elyRlFOJh92
s0NneQm0fmjVNXlL9FEXSpHu3XArOUWvLkVHkeLFa2YrQHuefOzgI3j1x8+ZHf/8
qDRQa4hsqnKZzBC9wCs5vztvZhlvw2U4sPhhHNmrRs3d+lZrt1T6wzq002/oKlDE
2y7qhEqFc7nbnRSahK9z7DmmlGCHHgV6xi8t9hQRLOojh4OjQ6PNQuVZsFVTNq8/
qA0c4V2b+TrMqbxCEUrJo+GRReB9sM6INaEBSVKeG/j05XGGolz7nnxG6TAyr8pA
md2V0MxwUSnzRFUC6eWdQXmQCXWOKcx7gnUOcVGER0k21HoKA0OBAE+us6eunira
AqXO837ZvuqrD3cYIfBpu0PxjPaTl4oHqehfWCqDkbJDYdxiwis47AMOMOdrLmAK
1mOv+aQW11tsnxbrZkOpQ65+FiQE/7nYMm+e1twHOEk2JJM65K+e+dyoVewQ081P
DNiyL6WDhADfz4AdO/09jSIdBqp507NLiEgq5A5NIUnMMZAdie+v1e6qamAaxvK/
+TaFdLPX6DbRZg7C3d94FWaew+2s9Tz4bcVWQ+fVhwuTBANn4xNAgm0fi2+kUyM1
QGaaQMMdUS9AnKySnqRtL/4MNjMfwP/xOJ8LXYH3XQ/KxA==
-----END CERTIFICATE-----
