Certificate:
    Data:
        Version: 3 (0x2)
        Serial Number: 4 (0x4)
    Signature Algorithm: sha256WithRSAEncryption
        Issuer: C=US, ST=California, L=San Jose, O=Kaazing, OU=Local Server, CN=Montage Studio
        Validity
            Not Before: Apr  3 20:07:19 2018 GMT
            Not After : Dec 28 20:07:19 2020 GMT
        Subject: C=US, ST=California, L=San Jose, O=Kaazing, CN=Montage Studio
        Subject Public Key Info:
            Public Key Algorithm: rsaEncryption
                Public-Key: (2048 bit)
                Modulus:
                    00:a8:9b:bb:d3:04:4d:8c:0e:07:3d:96:9f:54:ac:
                    cd:0a:6e:18:92:e3:dd:a1:ef:43:68:59:48:5c:e7:
                    db:7b:d7:ee:19:3e:f6:55:1c:4a:3c:53:a1:31:a4:
                    6e:5c:58:f3:c2:e1:a2:89:7a:5f:6d:a8:8f:91:58:
                    b1:d7:e9:d4:ee:09:4a:be:48:c2:46:14:ef:f0:35:
                    b3:9f:53:f4:95:fe:7c:d1:f4:c6:36:d2:04:d9:14:
                    c9:f2:1c:3a:c9:71:ca:48:3e:03:2f:3c:11:3d:72:
                    5e:3d:4f:75:99:1d:e8:82:c0:0a:8b:fb:c3:79:b1:
                    ea:6c:2f:c7:2c:40:39:c0:b6:a3:2b:81:b3:6f:99:
                    bb:6c:b0:78:ac:22:3c:ba:fe:cf:06:74:bb:6c:eb:
                    98:d4:32:b7:a9:80:94:95:98:d4:9c:56:43:47:c4:
                    3c:e6:a3:53:1d:63:41:dd:e1:d2:f4:6e:33:04:83:
                    9d:cc:ec:04:18:7e:6e:82:55:09:a1:35:82:c2:e1:
                    14:84:1d:6a:eb:f5:c7:e0:e6:fe:1d:75:8e:2b:91:
                    01:33:fe:6b:1d:e5:f5:66:26:ca:1f:a1:f4:64:12:
                    76:f6:d6:7b:03:3c:57:01:8c:b1:44:a3:7f:fc:ad:
                    34:b4:a9:6e:62:2c:38:1d:67:20:e3:3c:22:c9:f1:
                    d6:3b
                Exponent: 65537 (0x10001)
        X509v3 extensions:
            X509v3 Subject Key Identifier: 
                5E:4D:60:48:9C:CD:E2:8E:D5:7F:F2:DB:C9:95:67:19:E4:02:9C:A6
            X509v3 Authority Key Identifier: 
                keyid:6D:DB:8A:91:55:40:12:20:D2:0F:F1:8F:48:02:D4:4A:FB:E7:81:AA

            X509v3 Basic Constraints: 
                CA:FALSE
            X509v3 Key Usage: 
                Digital Signature, Key Encipherment
            X509v3 Subject Alternative Name: 
                DNS:local.montage.studio, DNS:www.local.montage.studio, DNS:project.local.montage.studio, DNS:session.local.montage.studio, DNS:api.local.montage.studio, DNS:build.local.montage.studio, DNS:ws.local.montage.studio
            Netscape Comment: 
                OpenSSL Generated Certificate
    Signature Algorithm: sha256WithRSAEncryption
         4a:37:e5:cb:11:9f:c6:2b:a5:7b:0c:e2:7c:cf:99:f7:4a:7c:
         a7:8a:f4:80:89:b0:73:83:ad:b1:79:10:af:83:2c:95:7b:19:
         d6:cd:b5:d3:8b:f3:30:5b:58:df:b9:67:cb:50:e2:59:dc:93:
         68:4f:d0:54:37:5e:bb:90:19:25:ed:8d:8b:17:4f:4d:fc:d9:
         a4:c6:e9:84:0f:c9:ee:4d:97:3a:5b:88:7b:76:88:03:ae:e5:
         8e:ce:79:13:cb:17:fd:67:1f:41:9e:4b:e8:60:4b:cc:2b:02:
         f5:e0:fe:8f:20:af:a5:6a:8a:1f:5f:76:14:f5:b8:14:51:5f:
         90:9e:3b:c3:a8:ee:20:5e:7f:80:90:1a:76:47:96:d4:3d:46:
         ae:6d:ba:08:86:99:84:78:5c:fd:71:4a:7e:cf:90:89:d5:07:
         65:27:22:fb:b2:8d:60:d3:5a:b9:70:58:d2:a4:56:fe:63:ff:
         93:5d:72:ba:99:2f:e6:dd:d0:86:1c:12:66:f0:17:d1:ec:90:
         a0:97:82:f7:28:5c:4a:08:e5:d0:48:20:95:d1:9a:f3:88:fb:
         e5:8d:c6:ac:b7:d3:07:ef:97:2c:98:2f:c5:40:8a:19:c6:8b:
         6f:85:22:bf:2a:e4:b0:df:6e:15:72:46:be:f9:89:2f:fe:11:
         51:9a:b4:b6:5a:e0:62:e5:46:eb:7b:1f:9b:51:19:11:39:ab:
         c5:68:14:dc:1c:8d:53:a3:5d:40:b8:3a:d5:2c:22:52:65:75:
         41:ee:ea:1d:dd:87:a3:57:8f:39:ec:59:33:9d:b5:73:fd:17:
         9f:b5:53:16:cd:d7:cc:5e:12:f9:5d:2d:8a:cd:dc:a8:91:34:
         b8:7d:bd:70:e9:58:48:e2:1d:ab:ef:21:30:95:88:21:77:ef:
         70:5c:f3:af:d4:4b:96:72:99:48:0b:b4:5c:a9:3c:2b:7e:4d:
         70:cb:8e:4a:71:c1:f9:6e:ad:eb:aa:61:08:6e:47:52:dc:9e:
         8d:76:18:a9:45:ef:4a:e0:38:88:2e:7b:88:2a:9b:d7:29:cb:
         a7:e9:17:35:f7:8a:72:1e:eb:02:9e:50:55:ff:99:57:1f:76:
         7c:e3:70:e5:3e:9e:5f:ed:30:95:8d:07:63:ed:8c:a7:10:40:
         3b:06:37:a5:43:d2:84:bd:54:1b:4c:b0:ae:b6:0e:f2:09:d7:
         5c:1d:db:c0:8d:ce:b9:0a:52:3e:1a:0d:aa:a2:2f:89:0f:65:
         b0:c5:46:2b:4a:85:61:39:14:54:31:19:2f:2d:85:8e:75:71:
         c6:3a:3d:72:7f:7e:5d:f9:a0:77:d9:db:ac:07:73:d3:12:7a:
         b9:a3:7c:a9:89:07:fc:a8
-----BEGIN CERTIFICATE-----
MIIFpzCCA4+gAwIBAgIBBDANBgkqhkiG9w0BAQsFADB3MQswCQYDVQQGEwJVUzET
MBEGA1UECAwKQ2FsaWZvcm5pYTERMA8GA1UEBwwIU2FuIEpvc2UxEDAOBgNVBAoM
B0thYXppbmcxFTATBgNVBAsMDExvY2FsIFNlcnZlcjEXMBUGA1UEAwwOTW9udGFn
ZSBTdHVkaW8wHhcNMTgwNDAzMjAwNzE5WhcNMjAxMjI4MjAwNzE5WjBgMQswCQYD
VQQGEwJVUzETMBEGA1UECAwKQ2FsaWZvcm5pYTERMA8GA1UEBwwIU2FuIEpvc2Ux
EDAOBgNVBAoMB0thYXppbmcxFzAVBgNVBAMMDk1vbnRhZ2UgU3R1ZGlvMIIBIjAN
BgkqhkiG9w0BAQEFAAOCAQ8AMIIBCgKCAQEAqJu70wRNjA4HPZafVKzNCm4YkuPd
oe9DaFlIXOfbe9fuGT72VRxKPFOhMaRuXFjzwuGiiXpfbaiPkVix1+nU7glKvkjC
RhTv8DWzn1P0lf580fTGNtIE2RTJ8hw6yXHKSD4DLzwRPXJePU91mR3ogsAKi/vD
ebHqbC/HLEA5wLajK4Gzb5m7bLB4rCI8uv7PBnS7bOuY1DK3qYCUlZjUnFZDR8Q8
5qNTHWNB3eHS9G4zBIOdzOwEGH5uglUJoTWCwuEUhB1q6/XH4Ob+HXWOK5EBM/5r
HeX1ZibKH6H0ZBJ29tZ7AzxXAYyxRKN//K00tKluYiw4HWcg4zwiyfHWOwIDAQAB
o4IBUzCCAU8wHQYDVR0OBBYEFF5NYEiczeKO1X/y28mVZxnkApymMB8GA1UdIwQY
MBaAFG3bipFVQBIg0g/xj0gC1Er754GqMAkGA1UdEwQCMAAwCwYDVR0PBAQDAgWg
MIHGBgNVHREEgb4wgbuCFGxvY2FsLm1vbnRhZ2Uuc3R1ZGlvghh3d3cubG9jYWwu
bW9udGFnZS5zdHVkaW+CHHByb2plY3QubG9jYWwubW9udGFnZS5zdHVkaW+CHHNl
c3Npb24ubG9jYWwubW9udGFnZS5zdHVkaW+CGGFwaS5sb2NhbC5tb250YWdlLnN0
dWRpb4IaYnVpbGQubG9jYWwubW9udGFnZS5zdHVkaW+CF3dzLmxvY2FsLm1vbnRh
Z2Uuc3R1ZGlvMCwGCWCGSAGG+EIBDQQfFh1PcGVuU1NMIEdlbmVyYXRlZCBDZXJ0
aWZpY2F0ZTANBgkqhkiG9w0BAQsFAAOCAgEASjflyxGfxiulewzifM+Z90p8p4r0
gImwc4OtsXkQr4MslXsZ1s2104vzMFtY37lny1DiWdyTaE/QVDdeu5AZJe2NixdP
TfzZpMbphA/J7k2XOluIe3aIA67ljs55E8sX/WcfQZ5L6GBLzCsC9eD+jyCvpWqK
H192FPW4FFFfkJ47w6juIF5/gJAadkeW1D1Grm26CIaZhHhc/XFKfs+QidUHZSci
+7KNYNNauXBY0qRW/mP/k11yupkv5t3QhhwSZvAX0eyQoJeC9yhcSgjl0EggldGa
84j75Y3GrLfTB++XLJgvxUCKGcaLb4UivyrksN9uFXJGvvmJL/4RUZq0tlrgYuVG
63sfm1EZETmrxWgU3ByNU6NdQLg61SwiUmV1Qe7qHd2Ho1ePOexZM521c/0Xn7VT
Fs3XzF4S+V0tis3cqJE0uH29cOlYSOIdq+8hMJWIIXfvcFzzr9RLlnKZSAu0XKk8
K35NcMuOSnHB+W6t66phCG5HUtyejXYYqUXvSuA4iC57iCqb1ynLp+kXNfeKch7r
Ap5QVf+ZVx92fONw5T6eX+0wlY0HY+2MpxBAOwY3pUPShL1UG0ywrrYO8gnXXB3b
wI3OuQpSPhoNqqIviQ9lsMVGK0qFYTkUVDEZLy2FjnVxxjo9cn9+Xfmgd9nbrAdz
0xJ6uaN8qYkH/Kg=
-----END CERTIFICATE-----
