Certificate:
    Data:
        Version: 3 (0x2)
        Serial Number: 5 (0x5)
    Signature Algorithm: sha256WithRSAEncryption
        Issuer: C=US, ST=California, L=San Jose, O=Kaazing, OU=Local Server, CN=Montage Studio
        Validity
            Not Before: Apr  3 21:47:18 2018 GMT
            Not After : Dec 28 21:47:18 2020 GMT
        Subject: C=US, ST=California, L=San Jose, O=Kaazing, CN=Montage Studio
        Subject Public Key Info:
            Public Key Algorithm: rsaEncryption
                Public-Key: (2048 bit)
                Modulus:
                    00:c9:45:a5:17:3e:8e:0d:b2:f4:dd:58:4f:ba:7d:
                    f9:1d:d1:ee:37:c6:bc:3a:34:90:07:b3:d0:21:ef:
                    59:8c:0f:53:0a:4a:0d:87:53:d3:ec:eb:93:e5:d3:
                    bc:a7:71:43:0b:36:02:bc:cb:11:0a:db:a5:15:51:
                    fa:dd:29:d3:a9:db:22:56:31:1a:54:b0:43:b9:7f:
                    3f:40:da:18:14:40:08:a7:ce:bc:88:45:92:3f:5e:
                    74:fd:2f:56:4a:ec:d6:fd:d9:8b:02:37:fc:a1:69:
                    30:bb:73:49:a8:fe:5f:88:52:27:c2:44:bf:ce:f9:
                    b7:a6:0b:16:a9:a7:39:95:4a:5c:3a:73:c4:21:a7:
                    a2:ca:23:43:a1:f6:d6:a5:25:20:37:cf:7e:54:3f:
                    78:cd:8c:c4:9f:5c:83:60:73:66:0e:bc:51:ab:5b:
                    11:8d:6a:2f:81:90:12:a2:05:dc:51:cf:fc:96:40:
                    93:38:d6:37:cb:65:f2:0f:97:28:19:bb:5c:08:ae:
                    ed:e1:5d:cd:2b:d2:eb:4a:2b:38:d7:c5:f4:cb:ea:
                    96:c4:69:97:8c:83:f4:e2:84:fa:dc:0e:3b:2e:be:
                    91:04:fb:96:69:56:d4:91:69:25:01:d2:ca:ed:97:
                    5f:9f:23:2e:1e:7c:6a:72:d8:1a:f6:6a:dd:54:97:
                    12:bb
                Exponent: 65537 (0x10001)
        X509v3 extensions:
            X509v3 Subject Key Identifier: 
                B5:0C:89:01:28:62:4F:31:BE:07:0D:F3:9A:AC:B6:FA:13:89:10:0E
            X509v3 Authority Key Identifier: 
                keyid:6D:DB:8A:91:55:40:12:20:D2:0F:F1:8F:48:02:D4:4A:FB:E7:81:AA

            X509v3 Basic Constraints: 
                CA:FALSE
            X509v3 Key Usage: 
                Digital Signature, Key Encipherment
            X509v3 Subject Alternative Name: 
                DNS:local.montage.studio, DNS:www.local.montage.studio, DNS:project.local.montage.studio, DNS:session.local.montage.studio, DNS:api.local.montage.studio, DNS:build.local.montage.studio, DNS:ws.local.montage.studio, DNS:auth.local.montage.studio
            Netscape Comment: 
                OpenSSL Generated Certificate
    Signature Algorithm: sha256WithRSAEncryption
         41:bc:b6:8c:b2:59:ca:fb:97:6f:c8:f4:4a:f3:fb:1e:ca:94:
         6a:8a:2c:1a:6f:7f:fe:d1:c2:78:e4:28:85:5a:66:30:40:9d:
         e0:f2:fb:cc:2f:bd:a9:9a:06:1d:c7:40:57:d8:7b:a5:70:aa:
         30:9a:6e:91:72:48:9d:eb:61:32:e8:67:a0:c0:16:33:ea:ba:
         87:32:bc:58:e8:99:9e:d4:24:4d:09:95:69:0d:03:af:f4:a2:
         23:9f:21:4f:43:ae:89:7d:d1:67:e2:51:f0:2a:de:1b:79:5f:
         bb:60:c2:20:23:89:07:0e:42:f8:09:3c:b8:fa:ee:19:2a:d4:
         81:01:f0:06:22:73:9a:93:a0:47:06:c4:07:ce:a9:4a:d2:be:
         c1:90:f6:fb:9f:b5:04:ee:16:86:e3:8a:ba:3a:a9:c1:8e:78:
         dd:5b:e0:cb:c2:21:5c:d4:16:28:29:e3:8f:64:0b:0a:21:97:
         28:97:6c:b9:26:79:9c:e2:42:6a:9f:54:86:31:e2:1b:26:11:
         a5:e9:f0:c1:38:33:a0:33:21:c8:48:8c:b5:a6:b3:87:46:af:
         1f:db:ac:00:cb:21:2a:fb:4f:e7:c8:d8:42:f4:3e:45:54:0e:
         0d:a3:7c:e0:fc:8f:e7:a3:e8:f3:24:39:7e:b8:51:b6:49:bc:
         f6:23:71:3f:08:8d:8c:4e:19:31:6e:5f:0b:17:90:c1:ec:37:
         56:38:b8:e9:38:b3:c4:45:ee:98:67:e6:38:d1:c9:9f:8a:11:
         2a:d8:8e:ea:fd:26:09:af:fe:4f:1f:99:d6:ad:1b:dc:49:71:
         30:46:fe:74:b3:3c:61:21:16:53:4a:52:af:74:8e:e6:85:f9:
         8b:3d:6d:e9:7e:c4:0d:d5:98:c2:de:f4:a5:65:b9:9f:29:36:
         2c:7f:9b:79:75:aa:d0:a0:ce:0c:e9:8f:0d:57:b9:e8:e7:08:
         4a:02:b7:5c:02:07:b0:53:2a:b3:dc:7d:80:e6:62:48:9e:37:
         52:5a:6d:36:16:2f:3f:f1:5d:5d:03:de:1f:8f:85:42:04:f2:
         ad:c8:16:ed:53:78:f0:ae:3e:89:39:84:81:03:34:a0:ad:45:
         c2:9d:58:0b:ad:72:ea:be:fc:b2:8c:5e:13:4e:82:cc:af:32:
         80:3d:48:d3:a3:5e:96:04:7a:bb:02:9e:2d:8f:40:f0:41:f9:
         c2:2f:3e:ce:8e:07:ad:6d:77:62:6b:68:87:d4:19:f7:e7:1e:
         ff:e4:1b:75:89:15:95:de:b7:3f:80:67:5b:4b:01:7e:8e:55:
         57:cd:df:ef:41:74:f0:34:0e:b1:65:da:8e:e8:19:18:08:e3:
         5a:c4:db:a8:65:a9:bd:26
-----BEGIN CERTIFICATE-----
MIIFwjCCA6qgAwIBAgIBBTANBgkqhkiG9w0BAQsFADB3MQswCQYDVQQGEwJVUzET
MBEGA1UECAwKQ2FsaWZvcm5pYTERMA8GA1UEBwwIU2FuIEpvc2UxEDAOBgNVBAoM
B0thYXppbmcxFTATBgNVBAsMDExvY2FsIFNlcnZlcjEXMBUGA1UEAwwOTW9udGFn
ZSBTdHVkaW8wHhcNMTgwNDAzMjE0NzE4WhcNMjAxMjI4MjE0NzE4WjBgMQswCQYD
VQQGEwJVUzETMBEGA1UECAwKQ2FsaWZvcm5pYTERMA8GA1UEBwwIU2FuIEpvc2Ux
EDAOBgNVBAoMB0thYXppbmcxFzAVBgNVBAMMDk1vbnRhZ2UgU3R1ZGlvMIIBIjAN
BgkqhkiG9w0BAQEFAAOCAQ8AMIIBCgKCAQEAyUWlFz6ODbL03VhPun35HdHuN8a8
OjSQB7PQIe9ZjA9TCkoNh1PT7OuT5dO8p3FDCzYCvMsRCtulFVH63SnTqdsiVjEa
VLBDuX8/QNoYFEAIp868iEWSP150/S9WSuzW/dmLAjf8oWkwu3NJqP5fiFInwkS/
zvm3pgsWqac5lUpcOnPEIaeiyiNDofbWpSUgN89+VD94zYzEn1yDYHNmDrxRq1sR
jWovgZASogXcUc/8lkCTONY3y2XyD5coGbtcCK7t4V3NK9LrSis418X0y+qWxGmX
jIP04oT63A47Lr6RBPuWaVbUkWklAdLK7ZdfnyMuHnxqctga9mrdVJcSuwIDAQAB
o4IBbjCCAWowHQYDVR0OBBYEFLUMiQEoYk8xvgcN85qstvoTiRAOMB8GA1UdIwQY
MBaAFG3bipFVQBIg0g/xj0gC1Er754GqMAkGA1UdEwQCMAAwCwYDVR0PBAQDAgWg
MIHhBgNVHREEgdkwgdaCFGxvY2FsLm1vbnRhZ2Uuc3R1ZGlvghh3d3cubG9jYWwu
bW9udGFnZS5zdHVkaW+CHHByb2plY3QubG9jYWwubW9udGFnZS5zdHVkaW+CHHNl
c3Npb24ubG9jYWwubW9udGFnZS5zdHVkaW+CGGFwaS5sb2NhbC5tb250YWdlLnN0
dWRpb4IaYnVpbGQubG9jYWwubW9udGFnZS5zdHVkaW+CF3dzLmxvY2FsLm1vbnRh
Z2Uuc3R1ZGlvghlhdXRoLmxvY2FsLm1vbnRhZ2Uuc3R1ZGlvMCwGCWCGSAGG+EIB
DQQfFh1PcGVuU1NMIEdlbmVyYXRlZCBDZXJ0aWZpY2F0ZTANBgkqhkiG9w0BAQsF
AAOCAgEAQby2jLJZyvuXb8j0SvP7HsqUaoosGm9//tHCeOQohVpmMECd4PL7zC+9
qZoGHcdAV9h7pXCqMJpukXJInethMuhnoMAWM+q6hzK8WOiZntQkTQmVaQ0Dr/Si
I58hT0OuiX3RZ+JR8CreG3lfu2DCICOJBw5C+Ak8uPruGSrUgQHwBiJzmpOgRwbE
B86pStK+wZD2+5+1BO4WhuOKujqpwY543Vvgy8IhXNQWKCnjj2QLCiGXKJdsuSZ5
nOJCap9UhjHiGyYRpenwwTgzoDMhyEiMtaazh0avH9usAMshKvtP58jYQvQ+RVQO
DaN84PyP56Po8yQ5frhRtkm89iNxPwiNjE4ZMW5fCxeQwew3Vji46TizxEXumGfm
ONHJn4oRKtiO6v0mCa/+Tx+Z1q0b3ElxMEb+dLM8YSEWU0pSr3SO5oX5iz1t6X7E
DdWYwt70pWW5nyk2LH+beXWq0KDODOmPDVe56OcISgK3XAIHsFMqs9x9gOZiSJ43
UlptNhYvP/FdXQPeH4+FQgTyrcgW7VN48K4+iTmEgQM0oK1Fwp1YC61y6r78soxe
E06CzK8ygD1I06NelgR6uwKeLY9A8EH5wi8+zo4HrW13Ymtoh9QZ9+ce/+QbdYkV
ld63P4BnW0sBfo5VV83f70F08DQOsWXajugZGAjjWsTbqGWpvSY=
-----END CERTIFICATE-----
